; Function Attrs: mustprogress null_pointer_is_valid sspstrong uwtable
define void @_ZN25BluetoothHciSummaryDialog13keyPressEventEP9QKeyEvent(ptr noundef readonly align 8 captures(none) dereferenceable_or_null(328) %0, ptr noundef %1) unnamed_addr #0 align 2 {
  %3 = tail call i32 @_ZNK9QKeyEvent9modifiersEv(ptr noundef align 8 dereferenceable_or_null(82) %1)
  %4 = and i32 %3, 67108864
  %.not = icmp eq i32 %4, 0
  br i1 %.not, label %.critedge, label %5

5:                                                ; preds = %2
  %6 = getelementptr inbounds nuw i8, ptr %1, i64 64
  %7 = load i32, ptr %6, align 8
  %8 = icmp eq i32 %7, 77
  br i1 %8, label %9, label %.critedge

9:                                                ; preds = %5
  tail call void @_ZN25BluetoothHciSummaryDialog34on_actionMark_Unmark_Row_triggeredEv(ptr noundef align 8 dereferenceable_or_null(328) %0)
  br label %.critedge

.critedge:                                        ; preds = %2, %9, %5
  ret void
}